target datalayout = "e-m:e-p270:32:32-p271:32:32-p272:64:64-i64:64-i128:128-f80:128-n8:16:32:64-S128"
target triple = "x86_64-pc-linux-gnu"

%struct.JsonManifestParseContext = type { ptr, ptr, ptr, ptr, ptr, ptr }

@.str.18 = private unnamed_addr constant [85 x i8] c"system identifier in backup manifest is %llu, but database system identifier is %llu\00", align 1

; Function Attrs: nounwind uwtable
define internal void @manifest_process_system_identifier(ptr noundef %0, i64 noundef %1) #0 {
  %3 = alloca ptr, align 8
  %4 = alloca i64, align 8
  %5 = alloca i64, align 8
  store ptr %0, ptr %3, align 8
  store i64 %1, ptr %4, align 8
  call void @llvm.lifetime.start.p0(i64 8, ptr %5) #12
  %6 = call i64 @GetSystemIdentifier()
  store i64 %6, ptr %5, align 8
  %7 = load i64, ptr %4, align 8
  %8 = load i64, ptr %5, align 8
  %9 = icmp ne i64 %7, %8
  br i1 %9, label %10, label %17

10:                                               ; preds = %2
  %11 = load ptr, ptr %3, align 8
  %12 = getelementptr inbounds nuw %struct.JsonManifestParseContext, ptr %11, i32 0, i32 5
  %13 = load ptr, ptr %12, align 8
  %14 = load ptr, ptr %3, align 8
  %15 = load i64, ptr %4, align 8
  %16 = load i64, ptr %5, align 8
  call void (ptr, ptr, ...) %13(ptr noundef %14, ptr noundef @.str.18, i64 noundef %15, i64 noundef %16) #13
  unreachable

17:                                               ; preds = %2
  call void @llvm.lifetime.end.p0(i64 8, ptr %5) #12
  ret void
}