; Function Attrs: nounwind uwtable
define internal void @manifest_process_system_identifier(ptr noundef %0, i64 noundef %1) #0 {
  %3 = tail call i64 @GetSystemIdentifier() #14
  %.not = icmp eq i64 %1, %3
  br i1 %.not, label %7, label %4

4:                                                ; preds = %2
  %5 = getelementptr inbounds nuw i8, ptr %0, i64 40
  %6 = load ptr, ptr %5, align 8
  tail call void (ptr, ptr, ...) %6(ptr noundef %0, ptr noundef nonnull @.str.18, i64 noundef %1, i64 noundef %3) #15
  unreachable

7:                                                ; preds = %2
  ret void
}